target datalayout = "e-m:e-p270:32:32-p271:32:32-p272:64:64-i64:64-i128:128-f80:128-n8:16:32:64-S128"
target triple = "x86_64-unknown-linux-gnu"

%"class.arrow::DataType" = type { %"class.arrow::detail::Fingerprintable", %"class.std::enable_shared_from_this", i32, %"class.std::vector" }
%"class.arrow::detail::Fingerprintable" = type { ptr, %"struct.std::atomic", %"struct.std::atomic" }
%"struct.std::atomic" = type { %"struct.std::__atomic_base" }
%"struct.std::__atomic_base" = type { ptr }
%"class.std::enable_shared_from_this" = type { %"class.std::weak_ptr" }
%"class.std::weak_ptr" = type { %"class.std::__weak_ptr" }
%"class.std::__weak_ptr" = type { ptr, %"class.std::__weak_count" }
%"class.std::__weak_count" = type { ptr }
%"class.std::vector" = type { %"struct.std::_Vector_base" }
%"struct.std::_Vector_base" = type { %"struct.std::_Vector_base<std::shared_ptr<arrow::Field>, std::allocator<std::shared_ptr<arrow::Field>>>::_Vector_impl" }
%"struct.std::_Vector_base<std::shared_ptr<arrow::Field>, std::allocator<std::shared_ptr<arrow::Field>>>::_Vector_impl" = type { %"struct.std::_Vector_base<std::shared_ptr<arrow::Field>, std::allocator<std::shared_ptr<arrow::Field>>>::_Vector_impl_data" }
%"struct.std::_Vector_base<std::shared_ptr<arrow::Field>, std::allocator<std::shared_ptr<arrow::Field>>>::_Vector_impl_data" = type { ptr, ptr, ptr }
%"class.std::shared_ptr.15" = type { %"class.std::__shared_ptr.16" }
%"class.std::__shared_ptr.16" = type { ptr, %"class.std::__shared_count" }
%"class.std::__shared_count" = type { ptr }
%"class.std::shared_ptr" = type { %"class.std::__shared_ptr" }
%"class.std::__shared_ptr" = type { ptr, %"class.std::__shared_count" }
%"class.std::vector.18" = type { %"struct.std::_Vector_base.19" }
%"struct.std::_Vector_base.19" = type { %"struct.std::_Vector_base<std::shared_ptr<arrow::Buffer>, std::allocator<std::shared_ptr<arrow::Buffer>>>::_Vector_impl" }
%"struct.std::_Vector_base<std::shared_ptr<arrow::Buffer>, std::allocator<std::shared_ptr<arrow::Buffer>>>::_Vector_impl" = type { %"struct.std::_Vector_base<std::shared_ptr<arrow::Buffer>, std::allocator<std::shared_ptr<arrow::Buffer>>>::_Vector_impl_data" }
%"struct.std::_Vector_base<std::shared_ptr<arrow::Buffer>, std::allocator<std::shared_ptr<arrow::Buffer>>>::_Vector_impl_data" = type { ptr, ptr, ptr }
%"class.std::shared_ptr.23" = type { %"class.std::__shared_ptr.24" }
%"class.std::__shared_ptr.24" = type { ptr, %"class.std::__shared_count" }
%"struct.arrow::ArrayData" = type { %"class.std::shared_ptr", i64, %"struct.std::atomic.29", i64, %"class.std::vector.18", %"class.std::vector.31", %"class.std::shared_ptr.15" }
%"struct.std::atomic.29" = type { %"struct.std::__atomic_base.30" }
%"struct.std::__atomic_base.30" = type { i64 }
%"class.std::vector.31" = type { %"struct.std::_Vector_base.32" }
%"struct.std::_Vector_base.32" = type { %"struct.std::_Vector_base<std::shared_ptr<arrow::ArrayData>, std::allocator<std::shared_ptr<arrow::ArrayData>>>::_Vector_impl" }
%"struct.std::_Vector_base<std::shared_ptr<arrow::ArrayData>, std::allocator<std::shared_ptr<arrow::ArrayData>>>::_Vector_impl" = type { %"struct.std::_Vector_base<std::shared_ptr<arrow::ArrayData>, std::allocator<std::shared_ptr<arrow::ArrayData>>>::_Vector_impl_data" }
%"struct.std::_Vector_base<std::shared_ptr<arrow::ArrayData>, std::allocator<std::shared_ptr<arrow::ArrayData>>>::_Vector_impl_data" = type { ptr, ptr, ptr }
%"class.arrow::Buffer" = type { ptr, i8, i8, ptr, i64, i64, i8, %"class.std::shared_ptr.23", %"class.std::shared_ptr.26" }
%"class.std::shared_ptr.26" = type { %"class.std::__shared_ptr.27" }
%"class.std::__shared_ptr.27" = type { ptr, %"class.std::__shared_count" }

; Function Attrs: mustprogress nounwind uwtable
define linkonce_odr noundef ptr @_ZNKSt12__shared_ptrIN5arrow6BufferELN9__gnu_cxx12_Lock_policyE2EE3getEv(ptr noundef nonnull align 8 dereferenceable(16) %this) #2 comdat align 2 {
entry:
  %this.addr = alloca ptr, align 8
  store ptr %this, ptr %this.addr, align 8
  %this1 = load ptr, ptr %this.addr, align 8
  %_M_ptr = getelementptr inbounds %"class.std::__shared_ptr.24", ptr %this1, i32 0, i32 0
  %0 = load ptr, ptr %_M_ptr, align 8
  ret ptr %0
}

; Function Attrs: mustprogress nounwind uwtable
define linkonce_odr noundef ptr @_ZNKSt19__shared_ptr_accessIN5arrow6BufferELN9__gnu_cxx12_Lock_policyE2ELb0ELb0EE6_M_getEv(ptr noundef nonnull align 1 dereferenceable(1) %this) #2 comdat align 2 {
entry:
  %this.addr = alloca ptr, align 8
  store ptr %this, ptr %this.addr, align 8
  %this1 = load ptr, ptr %this.addr, align 8
  %call = call noundef ptr @_ZNKSt12__shared_ptrIN5arrow6BufferELN9__gnu_cxx12_Lock_policyE2EE3getEv(ptr noundef nonnull align 8 dereferenceable(16) %this1) #12
  ret ptr %call
}

; Function Attrs: mustprogress nounwind uwtable
define linkonce_odr noundef ptr @_ZN5arrow6Buffer12mutable_dataEv(ptr noundef nonnull align 8 dereferenceable(80) %this) #2 comdat align 2 {
entry:
  %this.addr = alloca ptr, align 8
  store ptr %this, ptr %this.addr, align 8
  %this1 = load ptr, ptr %this.addr, align 8
  %is_cpu_ = getelementptr inbounds %"class.arrow::Buffer", ptr %this1, i32 0, i32 2
  %0 = load i8, ptr %is_cpu_, align 1
  %tobool = trunc i8 %0 to i1
  br i1 %tobool, label %land.rhs, label %land.end

land.rhs:                                         ; preds = %entry
  %is_mutable_ = getelementptr inbounds %"class.arrow::Buffer", ptr %this1, i32 0, i32 1
  %1 = load i8, ptr %is_mutable_, align 8
  %tobool2 = trunc i8 %1 to i1
  br label %land.end

land.end:                                         ; preds = %land.rhs, %entry
  %2 = phi i1 [ false, %entry ], [ %tobool2, %land.rhs ]
  %lnot = xor i1 %2, true
  %lnot3 = xor i1 %lnot, true
  br i1 %lnot3, label %cond.true, label %cond.false

cond.true:                                        ; preds = %land.end
  %data_ = getelementptr inbounds %"class.arrow::Buffer", ptr %this1, i32 0, i32 3
  %3 = load ptr, ptr %data_, align 8
  br label %cond.end

cond.false:                                       ; preds = %land.end
  br label %cond.end

cond.end:                                         ; preds = %cond.false, %cond.true
  %cond = phi ptr [ %3, %cond.true ], [ null, %cond.false ]
  ret ptr %cond
}

; Function Attrs: mustprogress nounwind uwtable
define linkonce_odr noundef ptr @_ZNKSt19__shared_ptr_accessIN5arrow6BufferELN9__gnu_cxx12_Lock_policyE2ELb0ELb0EEptEv(ptr noundef nonnull align 1 dereferenceable(1) %this) #2 comdat align 2 {
entry:
  %this.addr = alloca ptr, align 8
  store ptr %this, ptr %this.addr, align 8
  %this1 = load ptr, ptr %this.addr, align 8
  %call = call noundef ptr @_ZNKSt19__shared_ptr_accessIN5arrow6BufferELN9__gnu_cxx12_Lock_policyE2ELb0ELb0EE6_M_getEv(ptr noundef nonnull align 1 dereferenceable(1) %this1) #12
  ret ptr %call
}

; Function Attrs: mustprogress nounwind uwtable
define linkonce_odr noundef zeroext i1 @_ZNKSt12__shared_ptrIN5arrow6BufferELN9__gnu_cxx12_Lock_policyE2EEcvbEv(ptr noundef nonnull align 8 dereferenceable(16) %this) #2 comdat align 2 {
entry:
  %this.addr = alloca ptr, align 8
  store ptr %this, ptr %this.addr, align 8
  %this1 = load ptr, ptr %this.addr, align 8
  %_M_ptr = getelementptr inbounds %"class.std::__shared_ptr.24", ptr %this1, i32 0, i32 0
  %0 = load ptr, ptr %_M_ptr, align 8
  %cmp = icmp ne ptr %0, null
  ret i1 %cmp
}

; Function Attrs: mustprogress nounwind uwtable
define linkonce_odr noundef nonnull align 8 dereferenceable(16) ptr @_ZNSt6vectorISt10shared_ptrIN5arrow6BufferEESaIS3_EEixEm(ptr noundef nonnull align 8 dereferenceable(24) %this, i64 noundef %__n) #2 comdat align 2 {
entry:
  %this.addr = alloca ptr, align 8
  %__n.addr = alloca i64, align 8
  store ptr %this, ptr %this.addr, align 8
  store i64 %__n, ptr %__n.addr, align 8
  %this1 = load ptr, ptr %this.addr, align 8
  %_M_impl = getelementptr inbounds %"struct.std::_Vector_base.19", ptr %this1, i32 0, i32 0
  %_M_start = getelementptr inbounds %"struct.std::_Vector_base<std::shared_ptr<arrow::Buffer>, std::allocator<std::shared_ptr<arrow::Buffer>>>::_Vector_impl_data", ptr %_M_impl, i32 0, i32 0
  %0 = load ptr, ptr %_M_start, align 8
  %1 = load i64, ptr %__n.addr, align 8
  %add.ptr = getelementptr inbounds %"class.std::shared_ptr.23", ptr %0, i64 %1
  ret ptr %add.ptr
}

; Function Attrs: mustprogress nounwind uwtable
define linkonce_odr noundef ptr @_ZNKSt12__shared_ptrIN5arrow8DataTypeELN9__gnu_cxx12_Lock_policyE2EE3getEv(ptr noundef nonnull align 8 dereferenceable(16) %this) #2 comdat align 2 {
entry:
  %this.addr = alloca ptr, align 8
  store ptr %this, ptr %this.addr, align 8
  %this1 = load ptr, ptr %this.addr, align 8
  %_M_ptr = getelementptr inbounds %"class.std::__shared_ptr", ptr %this1, i32 0, i32 0
  %0 = load ptr, ptr %_M_ptr, align 8
  ret ptr %0
}

; Function Attrs: mustprogress nounwind uwtable
define linkonce_odr noundef ptr @_ZN5arrow9ArrayData16GetMutableValuesIhEEPT_il(ptr noundef nonnull align 8 dereferenceable(104) %this, i32 noundef %i, i64 noundef %absolute_offset) #2 comdat align 2 {
entry:
  %retval = alloca ptr, align 8
  %this.addr = alloca ptr, align 8
  %i.addr = alloca i32, align 4
  %absolute_offset.addr = alloca i64, align 8
  store ptr %this, ptr %this.addr, align 8
  store i32 %i, ptr %i.addr, align 4
  store i64 %absolute_offset, ptr %absolute_offset.addr, align 8
  %this1 = load ptr, ptr %this.addr, align 8
  %buffers = getelementptr inbounds %"struct.arrow::ArrayData", ptr %this1, i32 0, i32 4
  %0 = load i32, ptr %i.addr, align 4
  %conv = sext i32 %0 to i64
  %call = call noundef nonnull align 8 dereferenceable(16) ptr @_ZNSt6vectorISt10shared_ptrIN5arrow6BufferEESaIS3_EEixEm(ptr noundef nonnull align 8 dereferenceable(24) %buffers, i64 noundef %conv) #12
  %call2 = call noundef zeroext i1 @_ZNKSt12__shared_ptrIN5arrow6BufferELN9__gnu_cxx12_Lock_policyE2EEcvbEv(ptr noundef nonnull align 8 dereferenceable(16) %call) #12
  br i1 %call2, label %if.then, label %if.else

if.then:                                          ; preds = %entry
  %buffers3 = getelementptr inbounds %"struct.arrow::ArrayData", ptr %this1, i32 0, i32 4
  %1 = load i32, ptr %i.addr, align 4
  %conv4 = sext i32 %1 to i64
  %call5 = call noundef nonnull align 8 dereferenceable(16) ptr @_ZNSt6vectorISt10shared_ptrIN5arrow6BufferEESaIS3_EEixEm(ptr noundef nonnull align 8 dereferenceable(24) %buffers3, i64 noundef %conv4) #12
  %call6 = call noundef ptr @_ZNKSt19__shared_ptr_accessIN5arrow6BufferELN9__gnu_cxx12_Lock_policyE2ELb0ELb0EEptEv(ptr noundef nonnull align 1 dereferenceable(1) %call5) #12
  %call7 = call noundef ptr @_ZN5arrow6Buffer12mutable_dataEv(ptr noundef nonnull align 8 dereferenceable(80) %call6)
  %2 = load i64, ptr %absolute_offset.addr, align 8
  %add.ptr = getelementptr inbounds i8, ptr %call7, i64 %2
  store ptr %add.ptr, ptr %retval, align 8
  br label %return

if.else:                                          ; preds = %entry
  store ptr null, ptr %retval, align 8
  br label %return

return:                                           ; preds = %if.else, %if.then
  %3 = load ptr, ptr %retval, align 8
  ret ptr %3
}

; Function Attrs: mustprogress nounwind uwtable
define linkonce_odr noundef ptr @_ZNKSt19__shared_ptr_accessIN5arrow8DataTypeELN9__gnu_cxx12_Lock_policyE2ELb0ELb0EE6_M_getEv(ptr noundef nonnull align 1 dereferenceable(1) %this) #2 comdat align 2 {
entry:
  %this.addr = alloca ptr, align 8
  store ptr %this, ptr %this.addr, align 8
  %this1 = load ptr, ptr %this.addr, align 8
  %call = call noundef ptr @_ZNKSt12__shared_ptrIN5arrow8DataTypeELN9__gnu_cxx12_Lock_policyE2EE3getEv(ptr noundef nonnull align 8 dereferenceable(16) %this1) #12
  ret ptr %call
}

; Function Attrs: mustprogress uwtable
define linkonce_odr noundef ptr @_ZN5arrow9ArrayData16GetMutableValuesIhEEPT_i(ptr noundef nonnull align 8 dereferenceable(104) %this, i32 noundef %i) #0 comdat align 2 {
entry:
  %this.addr = alloca ptr, align 8
  %i.addr = alloca i32, align 4
  store ptr %this, ptr %this.addr, align 8
  store i32 %i, ptr %i.addr, align 4
  %this1 = load ptr, ptr %this.addr, align 8
  %0 = load i32, ptr %i.addr, align 4
  %offset = getelementptr inbounds %"struct.arrow::ArrayData", ptr %this1, i32 0, i32 3
  %1 = load i64, ptr %offset, align 8
  %call = call noundef ptr @_ZN5arrow9ArrayData16GetMutableValuesIhEEPT_il(ptr noundef nonnull align 8 dereferenceable(104) %this1, i32 noundef %0, i64 noundef %1)
  ret ptr %call
}

; Function Attrs: mustprogress nounwind uwtable
define linkonce_odr noundef zeroext i1 @_ZN5arrow15is_run_end_typeENS_4Type4typeE(i32 noundef %type_id) #2 comdat {
entry:
  %retval = alloca i1, align 1
  %type_id.addr = alloca i32, align 4
  store i32 %type_id, ptr %type_id.addr, align 4
  %0 = load i32, ptr %type_id.addr, align 4
  switch i32 %0, label %sw.default [
    i32 5, label %sw.bb
    i32 7, label %sw.bb
    i32 9, label %sw.bb
  ]

sw.bb:                                            ; preds = %entry, %entry, %entry
  store i1 true, ptr %retval, align 1
  br label %return

sw.default:                                       ; preds = %entry
  br label %sw.epilog

sw.epilog:                                        ; preds = %sw.default
  store i1 false, ptr %retval, align 1
  br label %return

return:                                           ; preds = %sw.epilog, %sw.bb
  %1 = load i1, ptr %retval, align 1
  ret i1 %1
}

; Function Attrs: mustprogress nounwind uwtable
define linkonce_odr noundef i32 @_ZNK5arrow8DataType2idEv(ptr noundef nonnull align 8 dereferenceable(72) %this) #2 comdat align 2 {
entry:
  %this.addr = alloca ptr, align 8
  store ptr %this, ptr %this.addr, align 8
  %this1 = load ptr, ptr %this.addr, align 8
  %id_ = getelementptr inbounds %"class.arrow::DataType", ptr %this1, i32 0, i32 2
  %0 = load i32, ptr %id_, align 8
  ret i32 %0
}

; Function Attrs: mustprogress nounwind uwtable
define linkonce_odr noundef ptr @_ZNKSt19__shared_ptr_accessIN5arrow8DataTypeELN9__gnu_cxx12_Lock_policyE2ELb0ELb0EEptEv(ptr noundef nonnull align 1 dereferenceable(1) %this) #2 comdat align 2 {
entry:
  %this.addr = alloca ptr, align 8
  store ptr %this, ptr %this.addr, align 8
  %this1 = load ptr, ptr %this.addr, align 8
  %call = call noundef ptr @_ZNKSt19__shared_ptr_accessIN5arrow8DataTypeELN9__gnu_cxx12_Lock_policyE2ELb0ELb0EE6_M_getEv(ptr noundef nonnull align 1 dereferenceable(1) %this1) #12
  ret ptr %call
}

; Function Attrs: mustprogress uwtable
define void @_ZN5arrow7compute8internal8ree_util17WriteSingleRunEndEPNS_9ArrayDataEl(ptr noundef %run_ends_data, i64 noundef %run_end) #0 {
entry:
  %run_ends_data.addr = alloca ptr, align 8
  %run_end.addr = alloca i64, align 8
  %output_run_ends = alloca ptr, align 8
  store ptr %run_ends_data, ptr %run_ends_data.addr, align 8
  store i64 %run_end, ptr %run_end.addr, align 8
  br label %while.cond

while.cond:                                       ; preds = %while.body, %entry
  br i1 false, label %while.body, label %while.end

while.body:                                       ; preds = %while.cond
  br label %while.cond, !llvm.loop !11

while.end:                                        ; preds = %while.cond
  br label %while.cond1

while.cond1:                                      ; preds = %while.body2, %while.end
  br i1 false, label %while.body2, label %while.end3

while.body2:                                      ; preds = %while.cond1
  br label %while.cond1, !llvm.loop !12

while.end3:                                       ; preds = %while.cond1
  br label %while.cond4

while.cond4:                                      ; preds = %while.body5, %while.end3
  br i1 false, label %while.body5, label %while.end6

while.body5:                                      ; preds = %while.cond4
  br label %while.cond4, !llvm.loop !13

while.end6:                                       ; preds = %while.cond4
  br label %while.cond7

while.cond7:                                      ; preds = %while.body8, %while.end6
  br i1 false, label %while.body8, label %while.end11

while.body8:                                      ; preds = %while.cond7
  %0 = load ptr, ptr %run_ends_data.addr, align 8
  %type = getelementptr inbounds %"struct.arrow::ArrayData", ptr %0, i32 0, i32 0
  %call = call noundef ptr @_ZNKSt19__shared_ptr_accessIN5arrow8DataTypeELN9__gnu_cxx12_Lock_policyE2ELb0ELb0EEptEv(ptr noundef nonnull align 1 dereferenceable(1) %type) #12
  %call9 = call noundef i32 @_ZNK5arrow8DataType2idEv(ptr noundef nonnull align 8 dereferenceable(72) %call)
  %call10 = call noundef zeroext i1 @_ZN5arrow15is_run_end_typeENS_4Type4typeE(i32 noundef %call9)
  br label %while.cond7, !llvm.loop !14

while.end11:                                      ; preds = %while.cond7
  br label %while.cond12

while.cond12:                                     ; preds = %while.body13, %while.end11
  br i1 false, label %while.body13, label %while.end15

while.body13:                                     ; preds = %while.cond12
  br label %while.cond12, !llvm.loop !15

while.end15:                                      ; preds = %while.cond12
  %1 = load ptr, ptr %run_ends_data.addr, align 8
  %call16 = call noundef ptr @_ZN5arrow9ArrayData16GetMutableValuesIhEEPT_i(ptr noundef nonnull align 8 dereferenceable(104) %1, i32 noundef 1)
  store ptr %call16, ptr %output_run_ends, align 8
  %2 = load ptr, ptr %run_ends_data.addr, align 8
  %type17 = getelementptr inbounds %"struct.arrow::ArrayData", ptr %2, i32 0, i32 0
  %call18 = call noundef ptr @_ZNKSt19__shared_ptr_accessIN5arrow8DataTypeELN9__gnu_cxx12_Lock_policyE2ELb0ELb0EEptEv(ptr noundef nonnull align 1 dereferenceable(1) %type17) #12
  %call19 = call noundef i32 @_ZNK5arrow8DataType2idEv(ptr noundef nonnull align 8 dereferenceable(72) %call18)
  switch i32 %call19, label %sw.default [
    i32 5, label %sw.bb
    i32 7, label %sw.bb20
  ]

sw.bb:                                            ; preds = %while.end15
  %3 = load i64, ptr %run_end.addr, align 8
  %conv = trunc i64 %3 to i16
  %4 = load ptr, ptr %output_run_ends, align 8
  store i16 %conv, ptr %4, align 2
  br label %sw.epilog

sw.bb20:                                          ; preds = %while.end15
  %5 = load i64, ptr %run_end.addr, align 8
  %conv21 = trunc i64 %5 to i32
  %6 = load ptr, ptr %output_run_ends, align 8
  store i32 %conv21, ptr %6, align 4
  br label %sw.epilog

sw.default:                                       ; preds = %while.end15
  br label %while.cond22

while.cond22:                                     ; preds = %while.body23, %sw.default
  br i1 false, label %while.body23, label %while.end27

while.body23:                                     ; preds = %while.cond22
  %7 = load ptr, ptr %run_ends_data.addr, align 8
  %type24 = getelementptr inbounds %"struct.arrow::ArrayData", ptr %7, i32 0, i32 0
  %call25 = call noundef ptr @_ZNKSt19__shared_ptr_accessIN5arrow8DataTypeELN9__gnu_cxx12_Lock_policyE2ELb0ELb0EEptEv(ptr noundef nonnull align 1 dereferenceable(1) %type24) #12
  %call26 = call noundef i32 @_ZNK5arrow8DataType2idEv(ptr noundef nonnull align 8 dereferenceable(72) %call25)
  br label %while.cond22, !llvm.loop !16

while.end27:                                      ; preds = %while.cond22
  br label %while.cond28

while.cond28:                                     ; preds = %while.body29, %while.end27
  br i1 false, label %while.body29, label %while.end30

while.body29:                                     ; preds = %while.cond28
  br label %while.cond28, !llvm.loop !17

while.end30:                                      ; preds = %while.cond28
  br label %while.cond31

while.cond31:                                     ; preds = %while.body32, %while.end30
  br i1 false, label %while.body32, label %while.end34

while.body32:                                     ; preds = %while.cond31
  br label %while.cond31, !llvm.loop !18

while.end34:                                      ; preds = %while.cond31
  %8 = load i64, ptr %run_end.addr, align 8
  %9 = load ptr, ptr %output_run_ends, align 8
  store i64 %8, ptr %9, align 8
  br label %sw.epilog

sw.epilog:                                        ; preds = %while.end34, %sw.bb20, %sw.bb
  ret void
}