; Function Attrs: mustprogress nofree norecurse nosync nounwind willreturn memory(readwrite, inaccessiblemem: none) uwtable
define void @_ZN5arrow7compute8internal8ree_util17WriteSingleRunEndEPNS_9ArrayDataEl(ptr nocapture noundef readonly %run_ends_data, i64 noundef %run_end) local_unnamed_addr #4 {
entry:
  %buffers.i.i = getelementptr inbounds i8, ptr %run_ends_data, i64 40
  %0 = load ptr, ptr %buffers.i.i, align 8
  %add.ptr.i.i.i = getelementptr inbounds i8, ptr %0, i64 16
  %1 = load ptr, ptr %add.ptr.i.i.i, align 8
  %cmp.i.not.i.i = icmp eq ptr %1, null
  br i1 %cmp.i.not.i.i, label %_ZN5arrow9ArrayData16GetMutableValuesIhEEPT_i.exit, label %if.then.i.i

if.then.i.i:                                      ; preds = %entry
  %offset.i = getelementptr inbounds i8, ptr %run_ends_data, i64 32
  %2 = load i64, ptr %offset.i, align 8
  %is_mutable_.i.i.i = getelementptr inbounds i8, ptr %1, i64 8
  %3 = load <2 x i8>, ptr %is_mutable_.i.i.i, align 8
  %4 = trunc <2 x i8> %3 to <2 x i1>
  %5 = extractelement <2 x i1> %4, i64 0
  %6 = extractelement <2 x i1> %4, i64 1
  %7 = select i1 %6, i1 %5, i1 false
  %data_.i.i.i = getelementptr inbounds i8, ptr %1, i64 16
  %8 = load ptr, ptr %data_.i.i.i, align 8
  %cond.i.i.i = select i1 %7, ptr %8, ptr null
  %add.ptr.i.i = getelementptr inbounds i8, ptr %cond.i.i.i, i64 %2
  br label %_ZN5arrow9ArrayData16GetMutableValuesIhEEPT_i.exit

_ZN5arrow9ArrayData16GetMutableValuesIhEEPT_i.exit: ; preds = %entry, %if.then.i.i
  %retval.0.i.i = phi ptr [ %add.ptr.i.i, %if.then.i.i ], [ null, %entry ]
  %9 = load ptr, ptr %run_ends_data, align 8
  %id_.i = getelementptr inbounds i8, ptr %9, i64 40
  %10 = load i32, ptr %id_.i, align 8
  switch i32 %10, label %while.end34 [
    i32 5, label %sw.bb
    i32 7, label %sw.bb20
  ]

sw.bb:                                            ; preds = %_ZN5arrow9ArrayData16GetMutableValuesIhEEPT_i.exit
  %conv = trunc i64 %run_end to i16
  store i16 %conv, ptr %retval.0.i.i, align 2
  br label %sw.epilog

sw.bb20:                                          ; preds = %_ZN5arrow9ArrayData16GetMutableValuesIhEEPT_i.exit
  %conv21 = trunc i64 %run_end to i32
  store i32 %conv21, ptr %retval.0.i.i, align 4
  br label %sw.epilog

while.end34:                                      ; preds = %_ZN5arrow9ArrayData16GetMutableValuesIhEEPT_i.exit
  store i64 %run_end, ptr %retval.0.i.i, align 8
  br label %sw.epilog

sw.epilog:                                        ; preds = %while.end34, %sw.bb20, %sw.bb
  ret void
}